target datalayout = "e-m:e-p270:32:32-p271:32:32-p272:64:64-i64:64-i128:128-f80:128-n8:16:32:64-S128"
target triple = "x86_64-pc-linux-gnu"

%struct.btLCP = type { i32, i32, i32, i32, i32, ptr, ptr, ptr, ptr, ptr, ptr, ptr, ptr, ptr, ptr, ptr, ptr, ptr, ptr, ptr }

; Function Attrs: mustprogress uwtable
define dso_local void @_ZN5btLCP22transfer_i_from_C_to_NEiR20btAlignedObjectArrayIfE(ptr noundef nonnull align 8 dereferenceable(144) %0, i32 noundef %1, ptr noundef nonnull align 8 dereferenceable(25) %2) #2 align 2 {
  %4 = alloca ptr, align 8
  %5 = alloca i32, align 4
  %6 = alloca ptr, align 8
  %7 = alloca ptr, align 8
  %8 = alloca i32, align 4
  %9 = alloca i32, align 4
  %10 = alloca i32, align 4
  %11 = alloca i32, align 4
  store ptr %0, ptr %4, align 8, !tbaa !41
  store i32 %1, ptr %5, align 4, !tbaa !9
  store ptr %2, ptr %6, align 8, !tbaa !92
  %12 = load ptr, ptr %4, align 8
  call void @llvm.lifetime.start.p0(i64 8, ptr %7) #9
  %13 = getelementptr inbounds nuw %struct.btLCP, ptr %12, i32 0, i32 19
  %14 = load ptr, ptr %13, align 8, !tbaa !69
  store ptr %14, ptr %7, align 8, !tbaa !45
  call void @llvm.lifetime.start.p0(i64 4, ptr %8) #9
  store i32 -1, ptr %8, align 4, !tbaa !9
  call void @llvm.lifetime.start.p0(i64 4, ptr %9) #9
  %15 = getelementptr inbounds nuw %struct.btLCP, ptr %12, i32 0, i32 3
  %16 = load i32, ptr %15, align 4, !tbaa !53
  store i32 %16, ptr %9, align 4, !tbaa !9
  call void @llvm.lifetime.start.p0(i64 4, ptr %10) #9
  store i32 0, ptr %10, align 4, !tbaa !9
  br label %17

17:                                               ; preds = %113, %3
  %18 = load i32, ptr %10, align 4, !tbaa !9
  %19 = load i32, ptr %9, align 4, !tbaa !9
  %20 = icmp slt i32 %18, %19
  br i1 %20, label %21, label %116

21:                                               ; preds = %17
  %22 = load ptr, ptr %7, align 8, !tbaa !45
  %23 = load i32, ptr %10, align 4, !tbaa !9
  %24 = sext i32 %23 to i64
  %25 = getelementptr inbounds i32, ptr %22, i64 %24
  %26 = load i32, ptr %25, align 4, !tbaa !9
  %27 = load i32, ptr %9, align 4, !tbaa !9
  %28 = sub nsw i32 %27, 1
  %29 = icmp eq i32 %26, %28
  br i1 %29, label %30, label %32

30:                                               ; preds = %21
  %31 = load i32, ptr %10, align 4, !tbaa !9
  store i32 %31, ptr %8, align 4, !tbaa !9
  br label %32

32:                                               ; preds = %30, %21
  %33 = load ptr, ptr %7, align 8, !tbaa !45
  %34 = load i32, ptr %10, align 4, !tbaa !9
  %35 = sext i32 %34 to i64
  %36 = getelementptr inbounds i32, ptr %33, i64 %35
  %37 = load i32, ptr %36, align 4, !tbaa !9
  %38 = load i32, ptr %5, align 4, !tbaa !9
  %39 = icmp eq i32 %37, %38
  br i1 %39, label %40, label %112

40:                                               ; preds = %32
  %41 = getelementptr inbounds nuw %struct.btLCP, ptr %12, i32 0, i32 5
  %42 = load ptr, ptr %41, align 8, !tbaa !55
  %43 = load ptr, ptr %7, align 8, !tbaa !45
  %44 = getelementptr inbounds nuw %struct.btLCP, ptr %12, i32 0, i32 11
  %45 = load ptr, ptr %44, align 8, !tbaa !61
  %46 = getelementptr inbounds nuw %struct.btLCP, ptr %12, i32 0, i32 12
  %47 = load ptr, ptr %46, align 8, !tbaa !62
  %48 = getelementptr inbounds nuw %struct.btLCP, ptr %12, i32 0, i32 0
  %49 = load i32, ptr %48, align 8, !tbaa !49
  %50 = load i32, ptr %9, align 4, !tbaa !9
  %51 = load i32, ptr %10, align 4, !tbaa !9
  %52 = getelementptr inbounds nuw %struct.btLCP, ptr %12, i32 0, i32 1
  %53 = load i32, ptr %52, align 4, !tbaa !51
  %54 = load ptr, ptr %6, align 8, !tbaa !92
  call void @_Z12btLDLTRemovePPfPKiS_S_iiiiR20btAlignedObjectArrayIfE(ptr noundef %42, ptr noundef %43, ptr noundef %45, ptr noundef %47, i32 noundef %49, i32 noundef %50, i32 noundef %51, i32 noundef %53, ptr noundef nonnull align 8 dereferenceable(25) %54)
  call void @llvm.lifetime.start.p0(i64 4, ptr %11) #9
  %55 = load i32, ptr %8, align 4, !tbaa !9
  %56 = icmp eq i32 %55, -1
  br i1 %56, label %57, label %79

57:                                               ; preds = %40
  %58 = load i32, ptr %10, align 4, !tbaa !9
  %59 = add nsw i32 %58, 1
  store i32 %59, ptr %11, align 4, !tbaa !9
  br label %60

60:                                               ; preds = %75, %57
  %61 = load i32, ptr %11, align 4, !tbaa !9
  %62 = load i32, ptr %9, align 4, !tbaa !9
  %63 = icmp slt i32 %61, %62
  br i1 %63, label %64, label %78

64:                                               ; preds = %60
  %65 = load ptr, ptr %7, align 8, !tbaa !45
  %66 = load i32, ptr %11, align 4, !tbaa !9
  %67 = sext i32 %66 to i64
  %68 = getelementptr inbounds i32, ptr %65, i64 %67
  %69 = load i32, ptr %68, align 4, !tbaa !9
  %70 = load i32, ptr %9, align 4, !tbaa !9
  %71 = sub nsw i32 %70, 1
  %72 = icmp eq i32 %69, %71
  br i1 %72, label %73, label %74

73:                                               ; preds = %64
  br label %78

74:                                               ; preds = %64
  br label %75

75:                                               ; preds = %74
  %76 = load i32, ptr %11, align 4, !tbaa !9
  %77 = add nsw i32 %76, 1
  store i32 %77, ptr %11, align 4, !tbaa !9
  br label %60, !llvm.loop !107

78:                                               ; preds = %73, %60
  br label %81

79:                                               ; preds = %40
  %80 = load i32, ptr %8, align 4, !tbaa !9
  store i32 %80, ptr %11, align 4, !tbaa !9
  br label %81

81:                                               ; preds = %79, %78
  %82 = load ptr, ptr %7, align 8, !tbaa !45
  %83 = load i32, ptr %10, align 4, !tbaa !9
  %84 = sext i32 %83 to i64
  %85 = getelementptr inbounds i32, ptr %82, i64 %84
  %86 = load i32, ptr %85, align 4, !tbaa !9
  %87 = load ptr, ptr %7, align 8, !tbaa !45
  %88 = load i32, ptr %11, align 4, !tbaa !9
  %89 = sext i32 %88 to i64
  %90 = getelementptr inbounds i32, ptr %87, i64 %89
  store i32 %86, ptr %90, align 4, !tbaa !9
  %91 = load i32, ptr %10, align 4, !tbaa !9
  %92 = load i32, ptr %9, align 4, !tbaa !9
  %93 = sub nsw i32 %92, 1
  %94 = icmp slt i32 %91, %93
  br i1 %94, label %95, label %111

95:                                               ; preds = %81
  %96 = load ptr, ptr %7, align 8, !tbaa !45
  %97 = load i32, ptr %10, align 4, !tbaa !9
  %98 = sext i32 %97 to i64
  %99 = getelementptr inbounds i32, ptr %96, i64 %98
  %100 = load ptr, ptr %7, align 8, !tbaa !45
  %101 = load i32, ptr %10, align 4, !tbaa !9
  %102 = sext i32 %101 to i64
  %103 = getelementptr inbounds i32, ptr %100, i64 %102
  %104 = getelementptr inbounds i32, ptr %103, i64 1
  %105 = load i32, ptr %9, align 4, !tbaa !9
  %106 = load i32, ptr %10, align 4, !tbaa !9
  %107 = sub nsw i32 %105, %106
  %108 = sub nsw i32 %107, 1
  %109 = sext i32 %108 to i64
  %110 = mul i64 %109, 4
  call void @llvm.memmove.p0.p0.i64(ptr align 4 %99, ptr align 4 %104, i64 %110, i1 false)
  br label %111

111:                                              ; preds = %95, %81
  call void @llvm.lifetime.end.p0(i64 4, ptr %11) #9
  br label %116

112:                                              ; preds = %32
  br label %113

113:                                              ; preds = %112
  %114 = load i32, ptr %10, align 4, !tbaa !9
  %115 = add nsw i32 %114, 1
  store i32 %115, ptr %10, align 4, !tbaa !9
  br label %17, !llvm.loop !108

116:                                              ; preds = %111, %17
  %117 = getelementptr inbounds nuw %struct.btLCP, ptr %12, i32 0, i32 5
  %118 = load ptr, ptr %117, align 8, !tbaa !55
  %119 = getelementptr inbounds nuw %struct.btLCP, ptr %12, i32 0, i32 6
  %120 = load ptr, ptr %119, align 8, !tbaa !56
  %121 = getelementptr inbounds nuw %struct.btLCP, ptr %12, i32 0, i32 7
  %122 = load ptr, ptr %121, align 8, !tbaa !57
  %123 = getelementptr inbounds nuw %struct.btLCP, ptr %12, i32 0, i32 8
  %124 = load ptr, ptr %123, align 8, !tbaa !58
  %125 = getelementptr inbounds nuw %struct.btLCP, ptr %12, i32 0, i32 9
  %126 = load ptr, ptr %125, align 8, !tbaa !59
  %127 = getelementptr inbounds nuw %struct.btLCP, ptr %12, i32 0, i32 10
  %128 = load ptr, ptr %127, align 8, !tbaa !60
  %129 = getelementptr inbounds nuw %struct.btLCP, ptr %12, i32 0, i32 18
  %130 = load ptr, ptr %129, align 8, !tbaa !68
  %131 = getelementptr inbounds nuw %struct.btLCP, ptr %12, i32 0, i32 16
  %132 = load ptr, ptr %131, align 8, !tbaa !66
  %133 = getelementptr inbounds nuw %struct.btLCP, ptr %12, i32 0, i32 17
  %134 = load ptr, ptr %133, align 8, !tbaa !67
  %135 = getelementptr inbounds nuw %struct.btLCP, ptr %12, i32 0, i32 0
  %136 = load i32, ptr %135, align 8, !tbaa !49
  %137 = load i32, ptr %5, align 4, !tbaa !9
  %138 = load i32, ptr %9, align 4, !tbaa !9
  %139 = sub nsw i32 %138, 1
  %140 = getelementptr inbounds nuw %struct.btLCP, ptr %12, i32 0, i32 1
  %141 = load i32, ptr %140, align 4, !tbaa !51
  call void @_ZL13btSwapProblemPPfS_S_S_S_S_PiPbS1_iiiii(ptr noundef %118, ptr noundef %120, ptr noundef %122, ptr noundef %124, ptr noundef %126, ptr noundef %128, ptr noundef %130, ptr noundef %132, ptr noundef %134, i32 noundef %136, i32 noundef %137, i32 noundef %139, i32 noundef %141, i32 noundef 1)
  %142 = getelementptr inbounds nuw %struct.btLCP, ptr %12, i32 0, i32 4
  %143 = load i32, ptr %142, align 8, !tbaa !54
  %144 = add nsw i32 %143, 1
  store i32 %144, ptr %142, align 8, !tbaa !54
  %145 = load i32, ptr %9, align 4, !tbaa !9
  %146 = sub nsw i32 %145, 1
  %147 = getelementptr inbounds nuw %struct.btLCP, ptr %12, i32 0, i32 3
  store i32 %146, ptr %147, align 4, !tbaa !53
  call void @llvm.lifetime.end.p0(i64 4, ptr %10) #9
  call void @llvm.lifetime.end.p0(i64 4, ptr %9) #9
  call void @llvm.lifetime.end.p0(i64 4, ptr %8) #9
  call void @llvm.lifetime.end.p0(i64 8, ptr %7) #9
  ret void
}