; Function Attrs: mustprogress uwtable
define dso_local void @_ZN5btLCP22transfer_i_from_C_to_NEiR20btAlignedObjectArrayIfE(ptr noundef nonnull align 8 captures(none) dereferenceable(144) %0, i32 noundef %1, ptr noundef nonnull align 8 captures(none) dereferenceable(25) %2) local_unnamed_addr #5 align 2 {
  %4 = getelementptr inbounds nuw i8, ptr %0, i64 136
  %5 = load ptr, ptr %4, align 8, !tbaa !57
  %6 = getelementptr inbounds nuw i8, ptr %0, i64 12
  %7 = load i32, ptr %6, align 4, !tbaa !41
  %8 = icmp sgt i32 %7, 0
  %9 = add nsw i32 %7, -1
  br i1 %8, label %.lr.ph, label %.loopexit42

.lr.ph:                                           ; preds = %3
  %wide.trip.count = zext nneg i32 %7 to i64
  br label %10

10:                                               ; preds = %.lr.ph, %44
  %indvars.iv55 = phi i32 [ 1, %.lr.ph ], [ %indvars.iv.next56, %44 ]
  %indvars.iv = phi i64 [ 0, %.lr.ph ], [ %indvars.iv.next, %44 ]
  %.03946 = phi i32 [ -1, %.lr.ph ], [ %spec.select, %44 ]
  %11 = getelementptr inbounds nuw i32, ptr %5, i64 %indvars.iv
  %12 = load i32, ptr %11, align 4, !tbaa !60
  %13 = icmp eq i32 %12, %9
  %14 = trunc nuw nsw i64 %indvars.iv to i32
  %spec.select = select i1 %13, i32 %14, i32 %.03946
  %15 = icmp eq i32 %12, %1
  br i1 %15, label %16, label %44

16:                                               ; preds = %10
  %17 = getelementptr inbounds nuw i32, ptr %5, i64 %indvars.iv
  %18 = getelementptr inbounds nuw i8, ptr %0, i64 24
  %19 = load ptr, ptr %18, align 8, !tbaa !43
  %20 = getelementptr inbounds nuw i8, ptr %0, i64 72
  %21 = load ptr, ptr %20, align 8, !tbaa !49
  %22 = getelementptr inbounds nuw i8, ptr %0, i64 80
  %23 = load ptr, ptr %22, align 8, !tbaa !50
  %24 = getelementptr inbounds nuw i8, ptr %0, i64 4
  %25 = load i32, ptr %24, align 4, !tbaa !39
  tail call void @_Z12btLDLTRemovePPfPKiS_S_iiiiR20btAlignedObjectArrayIfE(ptr noundef %19, ptr noundef nonnull %5, ptr noundef %21, ptr noundef %23, i32 poison, i32 noundef %7, i32 noundef %14, i32 noundef %25, ptr noundef nonnull align 8 dereferenceable(25) %2)
  %26 = icmp eq i32 %spec.select, -1
  br i1 %26, label %.preheader.preheader, label %.loopexit

.preheader.preheader:                             ; preds = %16
  %27 = zext nneg i32 %7 to i64
  %smax = tail call i32 @llvm.smax.i32(i32 %7, i32 %indvars.iv55)
  br label %.preheader

.preheader:                                       ; preds = %.preheader.preheader, %29
  %indvars.iv53 = phi i64 [ %indvars.iv, %.preheader.preheader ], [ %indvars.iv.next54, %29 ]
  %indvars.iv.next54 = add nuw nsw i64 %indvars.iv53, 1
  %28 = icmp samesign ult i64 %indvars.iv.next54, %27
  br i1 %28, label %29, label %.loopexit

29:                                               ; preds = %.preheader
  %30 = getelementptr inbounds nuw i32, ptr %5, i64 %indvars.iv.next54
  %31 = load i32, ptr %30, align 4, !tbaa !60
  %32 = icmp eq i32 %31, %9
  br i1 %32, label %.loopexit.loopexit.split.loop.exit, label %.preheader, !llvm.loop !95

.loopexit.loopexit.split.loop.exit:               ; preds = %29
  %33 = trunc nuw nsw i64 %indvars.iv.next54 to i32
  br label %.loopexit

.loopexit:                                        ; preds = %.preheader, %.loopexit.loopexit.split.loop.exit, %16
  %.1 = phi i32 [ %spec.select, %16 ], [ %33, %.loopexit.loopexit.split.loop.exit ], [ %smax, %.preheader ]
  %34 = load i32, ptr %17, align 4, !tbaa !60
  %35 = sext i32 %.1 to i64
  %36 = getelementptr inbounds i32, ptr %5, i64 %35
  store i32 %34, ptr %36, align 4, !tbaa !60
  %37 = icmp sgt i32 %9, %14
  br i1 %37, label %38, label %.loopexit42

38:                                               ; preds = %.loopexit
  %39 = getelementptr inbounds nuw i8, ptr %17, i64 4
  %40 = xor i32 %14, -1
  %41 = add nsw i32 %7, %40
  %42 = sext i32 %41 to i64
  %43 = shl nsw i64 %42, 2
  tail call void @llvm.memmove.p0.p0.i64(ptr nonnull align 4 %17, ptr nonnull align 4 %39, i64 %43, i1 false)
  br label %.loopexit42

44:                                               ; preds = %10
  %indvars.iv.next = add nuw nsw i64 %indvars.iv, 1
  %exitcond.not = icmp eq i64 %indvars.iv.next, %wide.trip.count
  %indvars.iv.next56 = add nuw i32 %indvars.iv55, 1
  br i1 %exitcond.not, label %.loopexit42, label %10, !llvm.loop !96

.loopexit42:                                      ; preds = %44, %3, %.loopexit, %38
  %45 = getelementptr inbounds nuw i8, ptr %0, i64 24
  %46 = load ptr, ptr %45, align 8, !tbaa !43
  %47 = getelementptr inbounds nuw i8, ptr %0, i64 32
  %48 = load ptr, ptr %47, align 8, !tbaa !44
  %49 = getelementptr inbounds nuw i8, ptr %0, i64 40
  %50 = load ptr, ptr %49, align 8, !tbaa !45
  %51 = getelementptr inbounds nuw i8, ptr %0, i64 48
  %52 = load ptr, ptr %51, align 8, !tbaa !46
  %53 = getelementptr inbounds nuw i8, ptr %0, i64 56
  %54 = load ptr, ptr %53, align 8, !tbaa !47
  %55 = getelementptr inbounds nuw i8, ptr %0, i64 64
  %56 = load ptr, ptr %55, align 8, !tbaa !48
  %57 = getelementptr inbounds nuw i8, ptr %0, i64 128
  %58 = load ptr, ptr %57, align 8, !tbaa !56
  %59 = getelementptr inbounds nuw i8, ptr %0, i64 112
  %60 = load ptr, ptr %59, align 8, !tbaa !54
  %61 = getelementptr inbounds nuw i8, ptr %0, i64 120
  %62 = load ptr, ptr %61, align 8, !tbaa !55
  %63 = load i32, ptr %0, align 8, !tbaa !31
  tail call fastcc void @_ZL13btSwapProblemPPfS_S_S_S_S_PiPbS1_iiiii(ptr noundef %46, ptr noundef %48, ptr noundef %50, ptr noundef %52, ptr noundef %54, ptr noundef %56, ptr noundef %58, ptr noundef %60, ptr noundef %62, i32 noundef %63, i32 noundef %1, i32 noundef %9, i32 noundef 1)
  %64 = getelementptr inbounds nuw i8, ptr %0, i64 16
  %65 = load i32, ptr %64, align 8, !tbaa !42
  %66 = add nsw i32 %65, 1
  store i32 %66, ptr %64, align 8, !tbaa !42
  store i32 %9, ptr %6, align 4, !tbaa !41
  ret void
}